target datalayout = "e-m:e-p270:32:32-p271:32:32-p272:64:64-i64:64-i128:128-f80:128-n8:16:32:64-S128"
target triple = "x86_64-pc-linux-gnu"

%struct.BTMetaPageData = type { i32, i32, i32, i32, i32, i32, i32, double, i8 }
%struct.PageHeaderData = type { %struct.PageXLogRecPtr, i16, i16, i16, i16, i16, i16, i32, [0 x %struct.ItemIdData] }
%struct.PageXLogRecPtr = type { i32, i32 }
%struct.ItemIdData = type { i32 }
%struct.BTPageOpaqueData = type { i32, i32, i32, i16, i16 }

; Function Attrs: inlinehint nounwind uwtable
define internal void @PageValidateSpecialPointer(ptr noundef %0) #2 {
  %2 = alloca ptr, align 8
  store ptr %0, ptr %2, align 8
  ret void
}

; Function Attrs: inlinehint nounwind uwtable
define internal ptr @PageGetContents(ptr noundef %0) #2 {
  %2 = alloca ptr, align 8
  store ptr %0, ptr %2, align 8
  %3 = load ptr, ptr %2, align 8
  %4 = getelementptr inbounds nuw i8, ptr %3, i64 24
  ret ptr %4
}

; Function Attrs: nounwind uwtable
define dso_local void @_bt_pageinit(ptr noundef %0, i64 noundef %1) #0 {
  %3 = alloca ptr, align 8
  %4 = alloca i64, align 8
  store ptr %0, ptr %3, align 8
  store i64 %1, ptr %4, align 8
  %5 = load ptr, ptr %3, align 8
  %6 = load i64, ptr %4, align 8
  call void @PageInit(ptr noundef %5, i64 noundef %6, i64 noundef 16)
  ret void
}

; Function Attrs: nounwind uwtable
define dso_local void @_bt_initmetapage(ptr noundef %0, i32 noundef %1, i32 noundef %2, i1 noundef zeroext %3) #0 {
  %5 = alloca ptr, align 8
  %6 = alloca i32, align 4
  %7 = alloca i32, align 4
  %8 = alloca i8, align 1
  %9 = alloca ptr, align 8
  %10 = alloca ptr, align 8
  store ptr %0, ptr %5, align 8
  store i32 %1, ptr %6, align 4
  store i32 %2, ptr %7, align 4
  %11 = zext i1 %3 to i8
  store i8 %11, ptr %8, align 1
  call void @llvm.lifetime.start.p0(i64 8, ptr %9) #8
  call void @llvm.lifetime.start.p0(i64 8, ptr %10) #8
  %12 = load ptr, ptr %5, align 8
  call void @_bt_pageinit(ptr noundef %12, i64 noundef 8192)
  %13 = load ptr, ptr %5, align 8
  %14 = call ptr @PageGetContents(ptr noundef %13)
  store ptr %14, ptr %9, align 8
  %15 = load ptr, ptr %9, align 8
  %16 = getelementptr inbounds nuw %struct.BTMetaPageData, ptr %15, i32 0, i32 0
  store i32 340322, ptr %16, align 8
  %17 = load ptr, ptr %9, align 8
  %18 = getelementptr inbounds nuw %struct.BTMetaPageData, ptr %17, i32 0, i32 1
  store i32 4, ptr %18, align 4
  %19 = load i32, ptr %6, align 4
  %20 = load ptr, ptr %9, align 8
  %21 = getelementptr inbounds nuw %struct.BTMetaPageData, ptr %20, i32 0, i32 2
  store i32 %19, ptr %21, align 8
  %22 = load i32, ptr %7, align 4
  %23 = load ptr, ptr %9, align 8
  %24 = getelementptr inbounds nuw %struct.BTMetaPageData, ptr %23, i32 0, i32 3
  store i32 %22, ptr %24, align 4
  %25 = load i32, ptr %6, align 4
  %26 = load ptr, ptr %9, align 8
  %27 = getelementptr inbounds nuw %struct.BTMetaPageData, ptr %26, i32 0, i32 4
  store i32 %25, ptr %27, align 8
  %28 = load i32, ptr %7, align 4
  %29 = load ptr, ptr %9, align 8
  %30 = getelementptr inbounds nuw %struct.BTMetaPageData, ptr %29, i32 0, i32 5
  store i32 %28, ptr %30, align 4
  %31 = load ptr, ptr %9, align 8
  %32 = getelementptr inbounds nuw %struct.BTMetaPageData, ptr %31, i32 0, i32 6
  store i32 0, ptr %32, align 8
  %33 = load ptr, ptr %9, align 8
  %34 = getelementptr inbounds nuw %struct.BTMetaPageData, ptr %33, i32 0, i32 7
  store double -1.000000e+00, ptr %34, align 8
  %35 = load i8, ptr %8, align 1, !range !4, !noundef !5
  %36 = trunc i8 %35 to i1
  %37 = load ptr, ptr %9, align 8
  %38 = getelementptr inbounds nuw %struct.BTMetaPageData, ptr %37, i32 0, i32 8
  %39 = zext i1 %36 to i8
  store i8 %39, ptr %38, align 8
  %40 = load ptr, ptr %5, align 8
  call void @PageValidateSpecialPointer(ptr noundef %40)
  %41 = load ptr, ptr %5, align 8
  %42 = load ptr, ptr %5, align 8
  %43 = getelementptr inbounds nuw %struct.PageHeaderData, ptr %42, i32 0, i32 5
  %44 = load i16, ptr %43, align 4
  %45 = zext i16 %44 to i32
  %46 = sext i32 %45 to i64
  %47 = getelementptr inbounds i8, ptr %41, i64 %46
  store ptr %47, ptr %10, align 8
  %48 = load ptr, ptr %10, align 8
  %49 = getelementptr inbounds nuw %struct.BTPageOpaqueData, ptr %48, i32 0, i32 3
  store i16 8, ptr %49, align 4
  %50 = load ptr, ptr %9, align 8
  %51 = getelementptr inbounds nuw i8, ptr %50, i64 48
  %52 = load ptr, ptr %5, align 8
  %53 = ptrtoint ptr %51 to i64
  %54 = ptrtoint ptr %52 to i64
  %55 = sub i64 %53, %54
  %56 = trunc i64 %55 to i16
  %57 = load ptr, ptr %5, align 8
  %58 = getelementptr inbounds nuw %struct.PageHeaderData, ptr %57, i32 0, i32 3
  store i16 %56, ptr %58, align 4
  call void @llvm.lifetime.end.p0(i64 8, ptr %10) #8
  call void @llvm.lifetime.end.p0(i64 8, ptr %9) #8
  ret void
}