; Function Attrs: nounwind uwtable
define dso_local void @_bt_initmetapage(ptr noundef %0, i32 noundef %1, i32 noundef %2, i1 noundef zeroext %3) local_unnamed_addr #0 {
  %5 = zext i1 %3 to i8
  tail call void @PageInit(ptr noundef %0, i64 noundef 8192, i64 noundef 16) #10
  %6 = getelementptr inbounds nuw i8, ptr %0, i64 24
  store i32 340322, ptr %6, align 8
  %7 = getelementptr inbounds nuw i8, ptr %0, i64 28
  store i32 4, ptr %7, align 4
  %8 = getelementptr inbounds nuw i8, ptr %0, i64 32
  store i32 %1, ptr %8, align 8
  %9 = getelementptr inbounds nuw i8, ptr %0, i64 36
  store i32 %2, ptr %9, align 4
  %10 = getelementptr inbounds nuw i8, ptr %0, i64 40
  store i32 %1, ptr %10, align 8
  %11 = getelementptr inbounds nuw i8, ptr %0, i64 44
  store i32 %2, ptr %11, align 4
  %12 = getelementptr inbounds nuw i8, ptr %0, i64 48
  store i32 0, ptr %12, align 8
  %13 = getelementptr inbounds nuw i8, ptr %0, i64 56
  store double -1.000000e+00, ptr %13, align 8
  %14 = getelementptr inbounds nuw i8, ptr %0, i64 64
  store i8 %5, ptr %14, align 8
  %15 = getelementptr inbounds nuw i8, ptr %0, i64 16
  %16 = load i16, ptr %15, align 4
  %17 = zext i16 %16 to i64
  %18 = getelementptr inbounds nuw i8, ptr %0, i64 %17
  %19 = getelementptr inbounds nuw i8, ptr %18, i64 12
  store i16 8, ptr %19, align 4
  %20 = getelementptr inbounds nuw i8, ptr %0, i64 12
  store i16 72, ptr %20, align 4
  ret void
}